; Function Attrs: null_pointer_is_valid sspstrong uwtable
define internal fastcc void @dissect_query_afp_with_fork(ptr noundef %0, ptr noundef readonly captures(none) %1, ptr noundef %2) unnamed_addr #1 {
  %4 = load i32, ptr @hf_afp_pad, align 4
  %5 = tail call ptr @proto_tree_add_item(ptr noundef %2, i32 noundef %4, ptr noundef %0, i32 noundef 1, i32 noundef 1, i32 noundef 0)
  %6 = tail call zeroext i16 @tvb_get_ntohs(ptr noundef %0, i32 noundef 2)
  %.not.i = icmp eq i16 %6, 0
  br i1 %.not.i, label %add_info_fork.exit, label %7

7:                                                ; preds = %3
  %8 = getelementptr inbounds nuw i8, ptr %1, i64 8
  %9 = load ptr, ptr %8, align 8
  %10 = zext i16 %6 to i32
  tail call void (ptr, i32, ptr, ...) @col_append_fstr(ptr noundef %9, i32 noundef 25, ptr noundef nonnull @.str.1056, i32 noundef %10)
  br label %add_info_fork.exit

add_info_fork.exit:                               ; preds = %3, %7
  %11 = load i32, ptr @hf_afp_ofork, align 4
  %12 = tail call ptr @proto_tree_add_item(ptr noundef %2, i32 noundef %11, ptr noundef %0, i32 noundef 2, i32 noundef 2, i32 noundef 0)
  ret void
}